; ModuleID = '12/47.c'
source_filename = "12/47.c"
target datalayout = "e-m:e-p270:32:32-p271:32:32-p272:64:64-i64:64-f80:128-n8:16:32:64-S128"
target triple = "x86_64-pc-linux-gnu"

@.str = private unnamed_addr constant [3 x i8] c"%d\00", align 1
@.str.1 = private unnamed_addr constant [4 x i8] c"%d\0A\00", align 1

; Function Attrs: noinline nounwind uwtable
define dso_local i32 @main() #0 {
  %1 = alloca i32, align 4
  %2 = alloca [15 x i32], align 16
  %3 = alloca [100 x i32], align 16
  %4 = alloca i32, align 4
  %5 = alloca i32, align 4
  %6 = alloca i32, align 4
  %7 = alloca i32, align 4
  store i32 0, i32* %1, align 4
  store i32 0, i32* %7, align 4
  store i32 0, i32* %4, align 4
  br label %8

8:                                                ; preds = %84, %0
  %9 = load i32, i32* %4, align 4
  %10 = sext i32 %9 to i64
  %11 = getelementptr inbounds [15 x i32], [15 x i32]* %2, i64 0, i64 %10
  %12 = call i32 (i8*, ...) @__isoc99_scanf(i8* getelementptr inbounds ([3 x i8], [3 x i8]* @.str, i64 0, i64 0), i32* %11)
  %13 = load i32, i32* %4, align 4
  %14 = sext i32 %13 to i64
  %15 = getelementptr inbounds [15 x i32], [15 x i32]* %2, i64 0, i64 %14
  %16 = load i32, i32* %15, align 4
  %17 = icmp eq i32 %16, 0
  br i1 %17, label %18, label %75

18:                                               ; preds = %8
  %19 = load i32, i32* %7, align 4
  %20 = sext i32 %19 to i64
  %21 = getelementptr inbounds [100 x i32], [100 x i32]* %3, i64 0, i64 %20
  store i32 0, i32* %21, align 4
  store i32 0, i32* %5, align 4
  br label %22

22:                                               ; preds = %69, %18
  %23 = load i32, i32* %5, align 4
  %24 = load i32, i32* %4, align 4
  %25 = sub nsw i32 %24, 1
  %26 = icmp slt i32 %23, %25
  br i1 %26, label %27, label %72

27:                                               ; preds = %22
  %28 = load i32, i32* %5, align 4
  %29 = add nsw i32 %28, 1
  store i32 %29, i32* %6, align 4
  br label %30

30:                                               ; preds = %65, %27
  %31 = load i32, i32* %6, align 4
  %32 = load i32, i32* %4, align 4
  %33 = icmp slt i32 %31, %32
  br i1 %33, label %34, label %68

34:                                               ; preds = %30
  %35 = load i32, i32* %5, align 4
  %36 = sext i32 %35 to i64
  %37 = getelementptr inbounds [15 x i32], [15 x i32]* %2, i64 0, i64 %36
  %38 = load i32, i32* %37, align 4
  %39 = load i32, i32* %6, align 4
  %40 = sext i32 %39 to i64
  %41 = getelementptr inbounds [15 x i32], [15 x i32]* %2, i64 0, i64 %40
  %42 = load i32, i32* %41, align 4
  %43 = mul nsw i32 2, %42
  %44 = icmp eq i32 %38, %43
  br i1 %44, label %58, label %45

45:                                               ; preds = %34
  %46 = load i32, i32* %5, align 4
  %47 = sext i32 %46 to i64
  %48 = getelementptr inbounds [15 x i32], [15 x i32]* %2, i64 0, i64 %47
  %49 = load i32, i32* %48, align 4
  %50 = sitofp i32 %49 to double
  %51 = load i32, i32* %6, align 4
  %52 = sext i32 %51 to i64
  %53 = getelementptr inbounds [15 x i32], [15 x i32]* %2, i64 0, i64 %52
  %54 = load i32, i32* %53, align 4
  %55 = sitofp i32 %54 to double
  %56 = fmul double 5.000000e-01, %55
  %57 = fcmp oeq double %50, %56
  br i1 %57, label %58, label %64

58:                                               ; preds = %45, %34
  %59 = load i32, i32* %7, align 4
  %60 = sext i32 %59 to i64
  %61 = getelementptr inbounds [100 x i32], [100 x i32]* %3, i64 0, i64 %60
  %62 = load i32, i32* %61, align 4
  %63 = add nsw i32 %62, 1
  store i32 %63, i32* %61, align 4
  br label %64

64:                                               ; preds = %58, %45
  br label %65

65:                                               ; preds = %64
  %66 = load i32, i32* %6, align 4
  %67 = add nsw i32 %66, 1
  store i32 %67, i32* %6, align 4
  br label %30

68:                                               ; preds = %30
  br label %69

69:                                               ; preds = %68
  %70 = load i32, i32* %5, align 4
  %71 = add nsw i32 %70, 1
  store i32 %71, i32* %5, align 4
  br label %22

72:                                               ; preds = %22
  %73 = load i32, i32* %7, align 4
  %74 = add nsw i32 %73, 1
  store i32 %74, i32* %7, align 4
  store i32 -1, i32* %4, align 4
  br label %83

75:                                               ; preds = %8
  %76 = load i32, i32* %4, align 4
  %77 = sext i32 %76 to i64
  %78 = getelementptr inbounds [15 x i32], [15 x i32]* %2, i64 0, i64 %77
  %79 = load i32, i32* %78, align 4
  %80 = icmp eq i32 %79, -1
  br i1 %80, label %81, label %82

81:                                               ; preds = %75
  br label %87

82:                                               ; preds = %75
  br label %83

83:                                               ; preds = %82, %72
  br label %84

84:                                               ; preds = %83
  %85 = load i32, i32* %4, align 4
  %86 = add nsw i32 %85, 1
  store i32 %86, i32* %4, align 4
  br label %8

87:                                               ; preds = %81
  store i32 0, i32* %4, align 4
  br label %88

88:                                               ; preds = %98, %87
  %89 = load i32, i32* %4, align 4
  %90 = load i32, i32* %7, align 4
  %91 = icmp slt i32 %89, %90
  br i1 %91, label %92, label %101

92:                                               ; preds = %88
  %93 = load i32, i32* %4, align 4
  %94 = sext i32 %93 to i64
  %95 = getelementptr inbounds [100 x i32], [100 x i32]* %3, i64 0, i64 %94
  %96 = load i32, i32* %95, align 4
  %97 = call i32 (i8*, ...) @printf(i8* getelementptr inbounds ([4 x i8], [4 x i8]* @.str.1, i64 0, i64 0), i32 %96)
  br label %98

98:                                               ; preds = %92
  %99 = load i32, i32* %4, align 4
  %100 = add nsw i32 %99, 1
  store i32 %100, i32* %4, align 4
  br label %88

101:                                              ; preds = %88
  ret i32 0
}

declare dso_local i32 @__isoc99_scanf(i8*, ...) #1

declare dso_local i32 @printf(i8*, ...) #1


!llvm.module.flags = !{!0}
!llvm.ident = !{!1}

!0 = !{i32 1, !"wchar_size", i32 4}
!1 = !{!"clang version 10.0.0-4ubuntu1 "}
